; Function Attrs: mustprogress uwtable
define internal void @_ZNK7rocksdb12_GLOBAL__N_121TwoLevelIndexIterator6statusEv(ptr noalias sret(%"class.rocksdb::Status") align 8 %agg.result, ptr noundef nonnull align 8 dereferenceable(160) %this) unnamed_addr #0 align 2 personality ptr @__gxx_personality_v0 {
entry:
  %ref.tmp = alloca %"class.rocksdb::Status", align 8
  %ref.tmp4 = alloca %"class.rocksdb::Status", align 8
  %first_level_iter_ = getelementptr inbounds i8, ptr %this, i64 48
  %0 = load ptr, ptr %first_level_iter_, align 8, !noalias !10
  %vtable.i = load ptr, ptr %0, align 8, !noalias !10
  %vfn.i = getelementptr inbounds i8, ptr %vtable.i, i64 112
  %1 = load ptr, ptr %vfn.i, align 8, !noalias !10
  call void %1(ptr nonnull sret(%"class.rocksdb::Status") align 8 %ref.tmp, ptr noundef nonnull align 8 dereferenceable(40) %0)
  %2 = load i8, ptr %ref.tmp, align 8
  %cmp.i = icmp eq i8 %2, 0
  %state_.i = getelementptr inbounds i8, ptr %ref.tmp, i64 8
  %3 = load ptr, ptr %state_.i, align 8
  %cmp.not.i.i = icmp eq ptr %3, null
  br i1 %cmp.not.i.i, label %_ZN7rocksdb6StatusD2Ev.exit, label %_ZNKSt14default_deleteIA_KcEclIS0_EENSt9enable_ifIXsr14is_convertibleIPA_T_PS1_EE5valueEvE4typeEPS5_.exit.i.i

_ZNKSt14default_deleteIA_KcEclIS0_EENSt9enable_ifIXsr14is_convertibleIPA_T_PS1_EE5valueEvE4typeEPS5_.exit.i.i: ; preds = %entry
  call void @_ZdaPv(ptr noundef nonnull %3) #12
  br label %_ZN7rocksdb6StatusD2Ev.exit

_ZN7rocksdb6StatusD2Ev.exit:                      ; preds = %entry, %_ZNKSt14default_deleteIA_KcEclIS0_EENSt9enable_ifIXsr14is_convertibleIPA_T_PS1_EE5valueEvE4typeEPS5_.exit.i.i
  store ptr null, ptr %state_.i, align 8
  br i1 %cmp.i, label %if.else, label %if.then

if.then:                                          ; preds = %_ZN7rocksdb6StatusD2Ev.exit
  %4 = load ptr, ptr %first_level_iter_, align 8, !noalias !13
  %vtable.i1 = load ptr, ptr %4, align 8, !noalias !13
  %vfn.i2 = getelementptr inbounds i8, ptr %vtable.i1, i64 112
  %5 = load ptr, ptr %vfn.i2, align 8, !noalias !13
  call void %5(ptr sret(%"class.rocksdb::Status") align 8 %agg.result, ptr noundef nonnull align 8 dereferenceable(40) %4)
  br label %return

if.else:                                          ; preds = %_ZN7rocksdb6StatusD2Ev.exit
  %second_level_iter_ = getelementptr inbounds i8, ptr %this, i64 88
  %6 = load ptr, ptr %second_level_iter_, align 8
  %cmp.not.not = icmp eq ptr %6, null
  br i1 %cmp.not.not, label %if.else10, label %cleanup.action

cleanup.action:                                   ; preds = %if.else
  %vtable.i3 = load ptr, ptr %6, align 8, !noalias !16
  %vfn.i4 = getelementptr inbounds i8, ptr %vtable.i3, i64 112
  %7 = load ptr, ptr %vfn.i4, align 8, !noalias !16
  call void %7(ptr nonnull sret(%"class.rocksdb::Status") align 8 %ref.tmp4, ptr noundef nonnull align 8 dereferenceable(40) %6)
  %8 = load i8, ptr %ref.tmp4, align 8
  %cmp.i5.not = icmp eq i8 %8, 0
  %state_.i6 = getelementptr inbounds i8, ptr %ref.tmp4, i64 8
  %9 = load ptr, ptr %state_.i6, align 8
  %cmp.not.i.i7 = icmp eq ptr %9, null
  br i1 %cmp.not.i.i7, label %cleanup.done, label %_ZNKSt14default_deleteIA_KcEclIS0_EENSt9enable_ifIXsr14is_convertibleIPA_T_PS1_EE5valueEvE4typeEPS5_.exit.i.i8

_ZNKSt14default_deleteIA_KcEclIS0_EENSt9enable_ifIXsr14is_convertibleIPA_T_PS1_EE5valueEvE4typeEPS5_.exit.i.i8: ; preds = %cleanup.action
  call void @_ZdaPv(ptr noundef nonnull %9) #12
  br label %cleanup.done

cleanup.done:                                     ; preds = %_ZNKSt14default_deleteIA_KcEclIS0_EENSt9enable_ifIXsr14is_convertibleIPA_T_PS1_EE5valueEvE4typeEPS5_.exit.i.i8, %cleanup.action
  store ptr null, ptr %state_.i6, align 8
  br i1 %cmp.i5.not, label %if.else10, label %if.then8

if.then8:                                         ; preds = %cleanup.done
  %10 = load ptr, ptr %second_level_iter_, align 8, !noalias !19
  %vtable.i10 = load ptr, ptr %10, align 8, !noalias !19
  %vfn.i11 = getelementptr inbounds i8, ptr %vtable.i10, i64 112
  %11 = load ptr, ptr %vfn.i11, align 8, !noalias !19
  call void %11(ptr sret(%"class.rocksdb::Status") align 8 %agg.result, ptr noundef nonnull align 8 dereferenceable(40) %10)
  br label %return

if.else10:                                        ; preds = %if.else, %cleanup.done
  %status_ = getelementptr inbounds i8, ptr %this, i64 128
  call void @_ZN7rocksdb6StatusC2ERKS0_(ptr noundef nonnull align 8 dereferenceable(16) %agg.result, ptr noundef nonnull align 8 dereferenceable(16) %status_)
  br label %return

return:                                           ; preds = %if.else10, %if.then8, %if.then
  ret void
}